target datalayout = "e-m:e-p270:32:32-p271:32:32-p272:64:64-i64:64-i128:128-f80:128-n8:16:32:64-S128"
target triple = "x86_64-unknown-linux-gnu"

%"class.rocksdb::Slice" = type { ptr, i64 }
%"class.rocksdb::InternalKeyComparator" = type { %"class.rocksdb::CompareInterface", %"class.rocksdb::UserComparatorWrapper" }
%"class.rocksdb::CompareInterface" = type { ptr }
%"class.rocksdb::UserComparatorWrapper" = type { ptr }
%"class.std::unique_ptr" = type { %"struct.std::__uniq_ptr_data" }
%"struct.std::__uniq_ptr_data" = type { %"class.std::__uniq_ptr_impl" }
%"class.std::__uniq_ptr_impl" = type { %"class.std::tuple" }
%"class.std::tuple" = type { %"struct.std::_Tuple_impl" }
%"struct.std::_Tuple_impl" = type { %"struct.std::_Head_base.6" }
%"struct.std::_Head_base.6" = type { ptr }
%"class.std::shared_ptr" = type { %"class.std::__shared_ptr" }
%"class.std::__shared_ptr" = type { ptr, %"class.std::__shared_count" }
%"class.std::__shared_count" = type { ptr }
%"class.std::vector.41" = type { %"struct.std::_Vector_base.42" }
%"struct.std::_Vector_base.42" = type { %"struct.std::_Vector_base<unsigned long, std::allocator<unsigned long>>::_Vector_impl" }
%"struct.std::_Vector_base<unsigned long, std::allocator<unsigned long>>::_Vector_impl" = type { %"struct.std::_Vector_base<unsigned long, std::allocator<unsigned long>>::_Vector_impl_data" }
%"struct.std::_Vector_base<unsigned long, std::allocator<unsigned long>>::_Vector_impl_data" = type { ptr, ptr, ptr }
%"class.rocksdb::CompactionIterator" = type <{ %"class.rocksdb::SequenceIterWrapper", ptr, ptr, ptr, %"class.std::unordered_set", i64, i64, ptr, ptr, ptr, i8, i8, [6 x i8], ptr, ptr, %"class.std::unique_ptr", ptr, ptr, ptr, i8, i8, [6 x i8], i64, %"class.std::shared_ptr", i8, i8, [6 x i8], i64, ptr, %"struct.rocksdb::CompactionIterator::ValidityInfo", [7 x i8], %"class.rocksdb::Slice", %"class.rocksdb::Slice", %"class.rocksdb::Status", %"struct.rocksdb::ParsedInternalKey", i8, i8, [6 x i8], %"class.rocksdb::IterKey", %"class.rocksdb::Slice", %"class.std::__cxx11::basic_string", i64, i64, i8, i8, [6 x i8], %"class.rocksdb::MergeOutputIterator", %"class.rocksdb::Status", %"class.rocksdb::PinnedIteratorsManager", i64, %"class.std::unique_ptr.25", %"class.std::unique_ptr.33", %"class.std::__cxx11::basic_string", %"class.rocksdb::PinnableSlice", %"class.std::__cxx11::basic_string", %"class.rocksdb::InternalKey", %"class.std::vector.41", %"struct.rocksdb::CompactionIterationStats", i8, [3 x i8], i32, i32, i8, i8, [2 x i8], i64, i64, i8, [7 x i8] }>
%"class.rocksdb::SequenceIterWrapper" = type <{ %"class.rocksdb::InternalIteratorBase", %"class.rocksdb::InternalKeyComparator", ptr, i64, i8, i8, [6 x i8] }>
%"class.rocksdb::InternalIteratorBase" = type { ptr, %"class.rocksdb::Cleanable" }
%"class.rocksdb::Cleanable" = type { %"struct.rocksdb::Cleanable::Cleanup" }
%"struct.rocksdb::Cleanable::Cleanup" = type { ptr, ptr, ptr, ptr }
%"class.std::unordered_set" = type { %"class.std::_Hashtable" }
%"class.std::_Hashtable" = type { ptr, i64, %"struct.std::__detail::_Hash_node_base", i64, %"struct.std::__detail::_Prime_rehash_policy", ptr }
%"struct.std::__detail::_Hash_node_base" = type { ptr }
%"struct.std::__detail::_Prime_rehash_policy" = type { float, i64 }
%"struct.rocksdb::CompactionIterator::ValidityInfo" = type { i8 }
%"struct.rocksdb::ParsedInternalKey" = type <{ %"class.rocksdb::Slice", i64, i8, [7 x i8] }>
%"class.rocksdb::IterKey" = type { ptr, ptr, i64, i64, [39 x i8], i8 }
%"class.rocksdb::MergeOutputIterator" = type { ptr, %"class.std::reverse_iterator", %"class.std::reverse_iterator.18" }
%"class.std::reverse_iterator" = type { %"struct.std::_Deque_iterator" }
%"struct.std::_Deque_iterator" = type { ptr, ptr, ptr, ptr }
%"class.std::reverse_iterator.18" = type { %"class.__gnu_cxx::__normal_iterator" }
%"class.__gnu_cxx::__normal_iterator" = type { ptr }
%"class.rocksdb::Status" = type { i8, i8, i8, i8, i8, i8, %"class.std::unique_ptr.7" }
%"class.std::unique_ptr.7" = type { %"struct.std::__uniq_ptr_data.8" }
%"struct.std::__uniq_ptr_data.8" = type { %"class.std::__uniq_ptr_impl.9" }
%"class.std::__uniq_ptr_impl.9" = type { %"class.std::tuple.10" }
%"class.std::tuple.10" = type { %"struct.std::_Tuple_impl.11" }
%"struct.std::_Tuple_impl.11" = type { %"struct.std::_Head_base.14" }
%"struct.std::_Head_base.14" = type { ptr }
%"class.rocksdb::PinnedIteratorsManager" = type { %"class.rocksdb::Cleanable", i8, %"class.std::vector.20" }
%"class.std::vector.20" = type { %"struct.std::_Vector_base.21" }
%"struct.std::_Vector_base.21" = type { %"struct.std::_Vector_base<std::pair<void *, void (*)(void *)>, std::allocator<std::pair<void *, void (*)(void *)>>>::_Vector_impl" }
%"struct.std::_Vector_base<std::pair<void *, void (*)(void *)>, std::allocator<std::pair<void *, void (*)(void *)>>>::_Vector_impl" = type { %"struct.std::_Vector_base<std::pair<void *, void (*)(void *)>, std::allocator<std::pair<void *, void (*)(void *)>>>::_Vector_impl_data" }
%"struct.std::_Vector_base<std::pair<void *, void (*)(void *)>, std::allocator<std::pair<void *, void (*)(void *)>>>::_Vector_impl_data" = type { ptr, ptr, ptr }
%"class.std::unique_ptr.25" = type { %"struct.std::__uniq_ptr_data.26" }
%"struct.std::__uniq_ptr_data.26" = type { %"class.std::__uniq_ptr_impl.27" }
%"class.std::__uniq_ptr_impl.27" = type { %"class.std::tuple.28" }
%"class.std::tuple.28" = type { %"struct.std::_Tuple_impl.29" }
%"struct.std::_Tuple_impl.29" = type { %"struct.std::_Head_base.32" }
%"struct.std::_Head_base.32" = type { ptr }
%"class.std::unique_ptr.33" = type { %"struct.std::__uniq_ptr_data.34" }
%"struct.std::__uniq_ptr_data.34" = type { %"class.std::__uniq_ptr_impl.35" }
%"class.std::__uniq_ptr_impl.35" = type { %"class.std::tuple.36" }
%"class.std::tuple.36" = type { %"struct.std::_Tuple_impl.37" }
%"struct.std::_Tuple_impl.37" = type { %"struct.std::_Head_base.40" }
%"struct.std::_Head_base.40" = type { ptr }
%"class.rocksdb::PinnableSlice" = type <{ %"class.rocksdb::Slice", %"class.rocksdb::Cleanable", %"class.std::__cxx11::basic_string", ptr, i8, [7 x i8] }>
%"class.std::__cxx11::basic_string" = type { %"struct.std::__cxx11::basic_string<char>::_Alloc_hider", i64, %union.anon }
%"struct.std::__cxx11::basic_string<char>::_Alloc_hider" = type { ptr }
%union.anon = type { i64, [8 x i8] }
%"class.rocksdb::InternalKey" = type { %"class.std::__cxx11::basic_string" }
%"struct.rocksdb::CompactionIterationStats" = type { i64, i64, i64, i64, i64, i64, i64, i64, i64, i64, i64, i64, i64, i64, i64, i64, i64, i64 }

; Function Attrs: mustprogress nounwind uwtable
define linkonce_odr void @_ZN7rocksdb13EncodeFixed64EPcm(ptr noundef %buf, i64 noundef %value) #1 comdat {
entry:
  %buf.addr = alloca ptr, align 8
  %value.addr = alloca i64, align 8
  store ptr %buf, ptr %buf.addr, align 8
  store i64 %value, ptr %value.addr, align 8
  %0 = load ptr, ptr %buf.addr, align 8
  call void @llvm.memcpy.p0.p0.i64(ptr align 1 %0, ptr align 8 %value.addr, i64 8, i1 false)
  ret void
}

; Function Attrs: mustprogress nounwind uwtable
define linkonce_odr noundef ptr @_ZNK7rocksdb5Slice4dataEv(ptr noundef nonnull align 8 dereferenceable(16) %this) #1 comdat align 2 {
entry:
  %this.addr = alloca ptr, align 8
  store ptr %this, ptr %this.addr, align 8
  %this1 = load ptr, ptr %this.addr, align 8
  %data_ = getelementptr inbounds %"class.rocksdb::Slice", ptr %this1, i32 0, i32 0
  %0 = load ptr, ptr %data_, align 8
  ret ptr %0
}

; Function Attrs: mustprogress nounwind uwtable
define linkonce_odr noundef i64 @_ZNK7rocksdb5Slice4sizeEv(ptr noundef nonnull align 8 dereferenceable(16) %this) #1 comdat align 2 {
entry:
  %this.addr = alloca ptr, align 8
  store ptr %this, ptr %this.addr, align 8
  %this1 = load ptr, ptr %this.addr, align 8
  %size_ = getelementptr inbounds %"class.rocksdb::Slice", ptr %this1, i32 0, i32 1
  %0 = load i64, ptr %size_, align 8
  ret i64 %0
}

; Function Attrs: mustprogress uwtable
define linkonce_odr void @_ZN7rocksdb7IterKey17UpdateInternalKeyEmNS_9ValueTypeEPKNS_5SliceE(ptr noundef nonnull align 8 dereferenceable(72) %this, i64 noundef %seq, i8 noundef zeroext %t, ptr noundef %ts) #0 comdat align 2 {
entry:
  %this.addr = alloca ptr, align 8
  %seq.addr = alloca i64, align 8
  %t.addr = alloca i8, align 1
  %ts.addr = alloca ptr, align 8
  %newval = alloca i64, align 8
  store ptr %this, ptr %this.addr, align 8
  store i64 %seq, ptr %seq.addr, align 8
  store i8 %t, ptr %t.addr, align 1
  store ptr %ts, ptr %ts.addr, align 8
  %this1 = load ptr, ptr %this.addr, align 8
  %0 = load ptr, ptr %ts.addr, align 8
  %tobool = icmp ne ptr %0, null
  br i1 %tobool, label %if.then, label %if.end

if.then:                                          ; preds = %entry
  %buf_ = getelementptr inbounds %"class.rocksdb::IterKey", ptr %this1, i32 0, i32 0
  %1 = load ptr, ptr %buf_, align 8
  %key_size_ = getelementptr inbounds %"class.rocksdb::IterKey", ptr %this1, i32 0, i32 2
  %2 = load i64, ptr %key_size_, align 8
  %sub = sub i64 %2, 8
  %3 = load ptr, ptr %ts.addr, align 8
  %call = call noundef i64 @_ZNK7rocksdb5Slice4sizeEv(ptr noundef nonnull align 8 dereferenceable(16) %3)
  %sub2 = sub i64 %sub, %call
  %arrayidx = getelementptr inbounds i8, ptr %1, i64 %sub2
  %4 = load ptr, ptr %ts.addr, align 8
  %call3 = call noundef ptr @_ZNK7rocksdb5Slice4dataEv(ptr noundef nonnull align 8 dereferenceable(16) %4)
  %5 = load ptr, ptr %ts.addr, align 8
  %call4 = call noundef i64 @_ZNK7rocksdb5Slice4sizeEv(ptr noundef nonnull align 8 dereferenceable(16) %5)
  call void @llvm.memcpy.p0.p0.i64(ptr align 1 %arrayidx, ptr align 1 %call3, i64 %call4, i1 false)
  br label %if.end

if.end:                                           ; preds = %if.then, %entry
  %6 = load i64, ptr %seq.addr, align 8
  %shl = shl i64 %6, 8
  %7 = load i8, ptr %t.addr, align 1
  %conv = zext i8 %7 to i64
  %or = or i64 %shl, %conv
  store i64 %or, ptr %newval, align 8
  %buf_5 = getelementptr inbounds %"class.rocksdb::IterKey", ptr %this1, i32 0, i32 0
  %8 = load ptr, ptr %buf_5, align 8
  %key_size_6 = getelementptr inbounds %"class.rocksdb::IterKey", ptr %this1, i32 0, i32 2
  %9 = load i64, ptr %key_size_6, align 8
  %sub7 = sub i64 %9, 8
  %arrayidx8 = getelementptr inbounds i8, ptr %8, i64 %sub7
  %10 = load i64, ptr %newval, align 8
  call void @_ZN7rocksdb13EncodeFixed64EPcm(ptr noundef %arrayidx8, i64 noundef %10)
  ret void
}

; Function Attrs: mustprogress uwtable
define void @_ZN7rocksdb18CompactionIterator25ExtractLargeValueIfNeededEv(ptr noundef nonnull align 8 dereferenceable(1097) %this) #0 align 2 {
entry:
  %this.addr = alloca ptr, align 8
  store ptr %this, ptr %this.addr, align 8
  %this1 = load ptr, ptr %this.addr, align 8
  %call = call noundef zeroext i1 @_ZN7rocksdb18CompactionIterator29ExtractLargeValueIfNeededImplEv(ptr noundef nonnull align 8 dereferenceable(1097) %this1)
  br i1 %call, label %if.end, label %if.then

if.then:                                          ; preds = %entry
  br label %return

if.end:                                           ; preds = %entry
  %ikey_ = getelementptr inbounds %"class.rocksdb::CompactionIterator", ptr %this1, i32 0, i32 34
  %type = getelementptr inbounds %"struct.rocksdb::ParsedInternalKey", ptr %ikey_, i32 0, i32 2
  store i8 17, ptr %type, align 8
  %current_key_ = getelementptr inbounds %"class.rocksdb::CompactionIterator", ptr %this1, i32 0, i32 38
  %ikey_2 = getelementptr inbounds %"class.rocksdb::CompactionIterator", ptr %this1, i32 0, i32 34
  %sequence = getelementptr inbounds %"struct.rocksdb::ParsedInternalKey", ptr %ikey_2, i32 0, i32 1
  %0 = load i64, ptr %sequence, align 8
  %ikey_3 = getelementptr inbounds %"class.rocksdb::CompactionIterator", ptr %this1, i32 0, i32 34
  %type4 = getelementptr inbounds %"struct.rocksdb::ParsedInternalKey", ptr %ikey_3, i32 0, i32 2
  %1 = load i8, ptr %type4, align 8
  call void @_ZN7rocksdb7IterKey17UpdateInternalKeyEmNS_9ValueTypeEPKNS_5SliceE(ptr noundef nonnull align 8 dereferenceable(72) %current_key_, i64 noundef %0, i8 noundef zeroext %1, ptr noundef null)
  br label %return

return:                                           ; preds = %if.end, %if.then
  ret void
}