; Function Attrs: mustprogress uwtable
define void @_ZN7rocksdb18CompactionIterator25ExtractLargeValueIfNeededEv(ptr noundef nonnull align 8 dereferenceable(1097) %this) local_unnamed_addr #3 align 2 {
entry:
  %call = tail call noundef zeroext i1 @_ZN7rocksdb18CompactionIterator29ExtractLargeValueIfNeededImplEv(ptr noundef nonnull align 8 dereferenceable(1097) %this)
  br i1 %call, label %if.end, label %return

if.end:                                           ; preds = %entry
  %type = getelementptr inbounds i8, ptr %this, i64 392
  store i8 17, ptr %type, align 8
  %current_key_ = getelementptr inbounds i8, ptr %this, i64 408
  %sequence = getelementptr inbounds i8, ptr %this, i64 384
  %0 = load i64, ptr %sequence, align 8
  %shl.i = shl i64 %0, 8
  %or.i = or disjoint i64 %shl.i, 17
  %1 = load ptr, ptr %current_key_, align 8
  %key_size_6.i = getelementptr inbounds i8, ptr %this, i64 424
  %2 = load i64, ptr %key_size_6.i, align 8
  %3 = getelementptr i8, ptr %1, i64 %2
  %arrayidx8.i = getelementptr i8, ptr %3, i64 -8
  store i64 %or.i, ptr %arrayidx8.i, align 1
  br label %return

return:                                           ; preds = %entry, %if.end
  ret void
}